target datalayout = "e-m:e-p270:32:32-p271:32:32-p272:64:64-i64:64-i128:128-f80:128-n8:16:32:64-S128"
target triple = "x86_64-pc-linux-gnu"

%struct.ParseContext_ = type { %struct.TokenData, i32, %union.SourceSpan, %union.SourceSpan, ptr, %struct.Lexer }
%struct.TokenData = type { ptr, i64, %union.anon.86 }
%union.anon.86 = type { %struct.anon.89 }
%struct.anon.89 = type { %struct.Int128_, i8 }
%struct.Int128_ = type { i64, i64 }
%union.SourceSpan = type { i64 }
%struct.Lexer = type { ptr, ptr, ptr, ptr, i32, i32, ptr, ptr, ptr, %struct.TokenData, %union.SourceSpan, i32, i32 }
%struct.anon.0 = type { i16, i8, i8, i32 }
%struct.TypeInfo_ = type { i16, ptr, %union.SourceSpan, %union.anon.57 }
%union.anon.57 = type { %struct.anon.58 }
%struct.anon.58 = type { ptr, ptr }

@poisoned_type_info = external global ptr, align 8

; Function Attrs: nounwind uwtable
define internal i64 @extend_span_with_token(i64 %0, i64 %1) #0 {
  %3 = alloca %union.SourceSpan, align 8
  %4 = alloca %union.SourceSpan, align 8
  %5 = alloca %union.SourceSpan, align 8
  %6 = getelementptr inbounds %union.SourceSpan, ptr %4, i32 0, i32 0
  store i64 %0, ptr %6, align 8
  %7 = getelementptr inbounds %union.SourceSpan, ptr %5, i32 0, i32 0
  store i64 %1, ptr %7, align 8
  %8 = getelementptr inbounds %struct.anon.0, ptr %4, i32 0, i32 3
  %9 = load i32, ptr %8, align 4
  %10 = getelementptr inbounds %struct.anon.0, ptr %5, i32 0, i32 3
  %11 = load i32, ptr %10, align 4
  %12 = icmp ne i32 %9, %11
  br i1 %12, label %13, label %14

13:                                               ; preds = %2
  call void @llvm.memcpy.p0.p0.i64(ptr align 8 %3, ptr align 8 %4, i64 8, i1 false)
  br label %28

14:                                               ; preds = %2
  %15 = getelementptr inbounds %struct.anon.0, ptr %5, i32 0, i32 2
  %16 = load i8, ptr %15, align 1
  %17 = zext i8 %16 to i32
  %18 = getelementptr inbounds %struct.anon.0, ptr %5, i32 0, i32 1
  %19 = load i8, ptr %18, align 2
  %20 = zext i8 %19 to i32
  %21 = add nsw i32 %17, %20
  %22 = getelementptr inbounds %struct.anon.0, ptr %4, i32 0, i32 2
  %23 = load i8, ptr %22, align 1
  %24 = zext i8 %23 to i32
  %25 = sub nsw i32 %21, %24
  %26 = trunc i32 %25 to i8
  %27 = getelementptr inbounds %struct.anon.0, ptr %4, i32 0, i32 1
  store i8 %26, ptr %27, align 2
  call void @llvm.memcpy.p0.p0.i64(ptr align 8 %3, ptr align 8 %4, i64 8, i1 false)
  br label %28

28:                                               ; preds = %14, %13
  %29 = getelementptr inbounds %union.SourceSpan, ptr %3, i32 0, i32 0
  %30 = load i64, ptr %29, align 8
  ret i64 %30
}

; Function Attrs: nounwind uwtable
define dso_local ptr @parse_optional_type(ptr noundef %0) #0 {
  %2 = alloca ptr, align 8
  %3 = alloca ptr, align 8
  %4 = alloca ptr, align 8
  %5 = alloca ptr, align 8
  %6 = alloca ptr, align 8
  %7 = alloca ptr, align 8
  %8 = alloca ptr, align 8
  %9 = alloca %union.SourceSpan, align 8
  store ptr %0, ptr %5, align 8
  %10 = load ptr, ptr %5, align 8
  %11 = call ptr @parse_base_type(ptr noundef %10)
  store ptr %11, ptr %6, align 8
  %12 = load ptr, ptr %6, align 8
  store ptr %12, ptr %2, align 8
  %13 = load ptr, ptr %2, align 8
  %14 = icmp ne ptr %13, null
  br i1 %14, label %15, label %22

15:                                               ; preds = %1
  %16 = load ptr, ptr %2, align 8
  %17 = load i16, ptr %16, align 8
  %18 = lshr i16 %17, 3
  %19 = and i16 %18, 63
  %20 = zext i16 %19 to i32
  %21 = icmp ne i32 %20, 0
  br label %22

22:                                               ; preds = %15, %1
  %23 = phi i1 [ true, %1 ], [ %21, %15 ]
  br i1 %23, label %26, label %24

24:                                               ; preds = %22
  %25 = load ptr, ptr @poisoned_type_info, align 8
  store ptr %25, ptr %4, align 8
  br label %83

26:                                               ; preds = %22
  %27 = load ptr, ptr %6, align 8
  store ptr %27, ptr %7, align 8
  %28 = load ptr, ptr %5, align 8
  %29 = load ptr, ptr %7, align 8
  %30 = call ptr @parse_type_with_base(ptr noundef %28, ptr noundef %29)
  store ptr %30, ptr %8, align 8
  %31 = load ptr, ptr %8, align 8
  store ptr %31, ptr %3, align 8
  %32 = load ptr, ptr %3, align 8
  %33 = icmp ne ptr %32, null
  br i1 %33, label %34, label %41

34:                                               ; preds = %26
  %35 = load ptr, ptr %3, align 8
  %36 = load i16, ptr %35, align 8
  %37 = lshr i16 %36, 3
  %38 = and i16 %37, 63
  %39 = zext i16 %38 to i32
  %40 = icmp ne i32 %39, 0
  br label %41

41:                                               ; preds = %34, %26
  %42 = phi i1 [ true, %26 ], [ %40, %34 ]
  br i1 %42, label %45, label %43

43:                                               ; preds = %41
  %44 = load ptr, ptr @poisoned_type_info, align 8
  store ptr %44, ptr %4, align 8
  br label %83

45:                                               ; preds = %41
  %46 = load ptr, ptr %8, align 8
  store ptr %46, ptr %7, align 8
  %47 = load ptr, ptr %5, align 8
  %48 = call zeroext i1 @try_consume(ptr noundef %47, i32 noundef 3)
  br i1 %48, label %49, label %81

49:                                               ; preds = %45
  %50 = load ptr, ptr %7, align 8
  %51 = load i16, ptr %50, align 8
  %52 = and i16 %51, -513
  %53 = or i16 %52, 512
  store i16 %53, ptr %50, align 8
  %54 = load ptr, ptr %7, align 8
  %55 = load i16, ptr %54, align 8
  %56 = and i16 %55, 7
  %57 = zext i16 %56 to i32
  %58 = icmp eq i32 %57, 2
  br i1 %58, label %59, label %66

59:                                               ; preds = %49
  %60 = load ptr, ptr %7, align 8
  %61 = getelementptr inbounds %struct.TypeInfo_, ptr %60, i32 0, i32 1
  %62 = load ptr, ptr %61, align 8
  %63 = call ptr @type_get_optional(ptr noundef %62)
  %64 = load ptr, ptr %7, align 8
  %65 = getelementptr inbounds %struct.TypeInfo_, ptr %64, i32 0, i32 1
  store ptr %63, ptr %65, align 8
  br label %66

66:                                               ; preds = %59, %49
  br label %67

67:                                               ; preds = %66
  %68 = load ptr, ptr %7, align 8
  %69 = getelementptr inbounds %struct.TypeInfo_, ptr %68, i32 0, i32 2
  %70 = load ptr, ptr %7, align 8
  %71 = getelementptr inbounds %struct.TypeInfo_, ptr %70, i32 0, i32 2
  %72 = load ptr, ptr %5, align 8
  %73 = getelementptr inbounds %struct.ParseContext_, ptr %72, i32 0, i32 3
  %74 = getelementptr inbounds %union.SourceSpan, ptr %71, i32 0, i32 0
  %75 = load i64, ptr %74, align 8
  %76 = getelementptr inbounds %union.SourceSpan, ptr %73, i32 0, i32 0
  %77 = load i64, ptr %76, align 8
  %78 = call i64 @extend_span_with_token(i64 %75, i64 %77)
  %79 = getelementptr inbounds %union.SourceSpan, ptr %9, i32 0, i32 0
  store i64 %78, ptr %79, align 8
  call void @llvm.memcpy.p0.p0.i64(ptr align 8 %69, ptr align 8 %9, i64 8, i1 false)
  br label %80

80:                                               ; preds = %67
  br label %81

81:                                               ; preds = %80, %45
  %82 = load ptr, ptr %7, align 8
  store ptr %82, ptr %4, align 8
  br label %83

83:                                               ; preds = %81, %43, %24
  %84 = load ptr, ptr %4, align 8
  ret ptr %84
}