; Function Attrs: nounwind uwtable
define dso_local ptr @parse_optional_type(ptr noundef %0) local_unnamed_addr #0 {
  %2 = tail call fastcc ptr @parse_base_type(ptr noundef %0)
  %.not = icmp eq ptr %2, null
  br i1 %.not, label %.split23, label %4

.split23:                                         ; preds = %1
  %3 = tail call ptr @parse_type_with_base(ptr noundef %0, ptr noundef null)
  br label %.critedge

4:                                                ; preds = %1
  %5 = load i16, ptr %2, align 8
  %6 = and i16 %5, 504
  %.not25 = icmp eq i16 %6, 0
  br i1 %.not25, label %8, label %.split

.split:                                           ; preds = %4
  %7 = tail call ptr @parse_type_with_base(ptr noundef %0, ptr noundef nonnull %2)
  br label %.critedge

8:                                                ; preds = %4
  %9 = load ptr, ptr @poisoned_type_info, align 8
  br label %40

.critedge:                                        ; preds = %.split23, %.split
  %phi.call = phi ptr [ %7, %.split ], [ %3, %.split23 ]
  %.not26 = icmp eq ptr %phi.call, null
  br i1 %.not26, label %.critedge2, label %10

10:                                               ; preds = %.critedge
  %11 = load i16, ptr %phi.call, align 8
  %12 = and i16 %11, 504
  %.not27 = icmp eq i16 %12, 0
  br i1 %.not27, label %13, label %.critedge2

13:                                               ; preds = %10
  %14 = load ptr, ptr @poisoned_type_info, align 8
  br label %40

.critedge2:                                       ; preds = %.critedge, %10
  %15 = tail call zeroext i1 @try_consume(ptr noundef %0, i32 noundef 3) #8
  br i1 %15, label %16, label %40

16:                                               ; preds = %.critedge2
  %17 = load i16, ptr %phi.call, align 8
  %18 = or i16 %17, 512
  store i16 %18, ptr %phi.call, align 8
  %19 = and i16 %17, 7
  %20 = icmp eq i16 %19, 2
  br i1 %20, label %21, label %25

21:                                               ; preds = %16
  %22 = getelementptr inbounds i8, ptr %phi.call, i64 8
  %23 = load ptr, ptr %22, align 8
  %24 = tail call ptr @type_get_optional(ptr noundef %23) #8
  store ptr %24, ptr %22, align 8
  br label %25

25:                                               ; preds = %16, %21
  %26 = getelementptr inbounds i8, ptr %phi.call, i64 16
  %27 = getelementptr inbounds i8, ptr %0, i64 56
  %28 = load i64, ptr %26, align 8
  %29 = load i64, ptr %27, align 8
  %.not.unshifted.i = xor i64 %29, %28
  %.not.i = icmp ult i64 %.not.unshifted.i, 4294967296
  br i1 %.not.i, label %31, label %30

30:                                               ; preds = %25
  %.sroa.33.0.extract.shift.i = lshr i64 %28, 16
  br label %extend_span_with_token.exit

31:                                               ; preds = %25
  %.sroa.4.0.extract.shift.i = lshr i64 %28, 24
  %32 = trunc i64 %29 to i32
  %33 = lshr i32 %32, 24
  %34 = lshr i32 %32, 16
  %35 = trunc i64 %.sroa.4.0.extract.shift.i to i32
  %36 = sub i32 %34, %35
  %37 = add i32 %36, %33
  %38 = zext i32 %37 to i64
  br label %extend_span_with_token.exit

extend_span_with_token.exit:                      ; preds = %30, %31
  %.sroa.311.0.i = phi i64 [ %.sroa.33.0.extract.shift.i, %30 ], [ %38, %31 ]
  %.sroa.311.0.insert.ext.i = shl nuw i64 %.sroa.311.0.i, 16
  %.sroa.311.0.insert.shift.i = and i64 %.sroa.311.0.insert.ext.i, 16711680
  %39 = and i64 %28, -16711681
  %.sroa.010.0.insert.insert.i = or disjoint i64 %.sroa.311.0.insert.shift.i, %39
  store i64 %.sroa.010.0.insert.insert.i, ptr %26, align 8
  br label %40

40:                                               ; preds = %.critedge2, %extend_span_with_token.exit, %13, %8
  %.0 = phi ptr [ %14, %13 ], [ %9, %8 ], [ %phi.call, %extend_span_with_token.exit ], [ %phi.call, %.critedge2 ]
  ret ptr %.0
}